target datalayout = "e-m:e-p270:32:32-p271:32:32-p272:64:64-i64:64-i128:128-f80:128-n8:16:32:64-S128"
target triple = "x86_64-unknown-linux-gnu"

%"class.std::__cxx11::basic_string" = type { %"struct.std::__cxx11::basic_string<char>::_Alloc_hider", i64, %union.anon }
%"struct.std::__cxx11::basic_string<char>::_Alloc_hider" = type { ptr }
%union.anon = type { i64, [8 x i8] }
%"class.std::vector" = type { %"struct.std::_Vector_base" }
%"struct.std::_Vector_base" = type { %"struct.std::_Vector_base<unsigned long, std::allocator<unsigned long>>::_Vector_impl" }
%"struct.std::_Vector_base<unsigned long, std::allocator<unsigned long>>::_Vector_impl" = type { %"struct.std::_Vector_base<unsigned long, std::allocator<unsigned long>>::_Vector_impl_data" }
%"struct.std::_Vector_base<unsigned long, std::allocator<unsigned long>>::_Vector_impl_data" = type { ptr, ptr, ptr }
%"class.std::basic_ostream.base" = type { ptr }
%"class.std::__cxx11::basic_stringbuf" = type { %"class.std::basic_streambuf", i32, %"class.std::__cxx11::basic_string" }
%"class.std::basic_streambuf" = type { ptr, ptr, ptr, ptr, ptr, ptr, ptr, %"class.std::locale" }
%"class.std::locale" = type { ptr }
%"class.std::basic_ios" = type { %"class.std::ios_base", ptr, i8, i8, ptr, ptr, ptr, ptr }
%"class.std::ios_base" = type { ptr, i64, i64, i32, i32, i32, ptr, %"struct.std::ios_base::_Words", [8 x %"struct.std::ios_base::_Words"], i32, ptr, %"class.std::locale" }
%"struct.std::ios_base::_Words" = type { ptr, i64 }
%"class.std::__cxx11::basic_ostringstream" = type { %"class.std::basic_ostream.base", %"class.std::__cxx11::basic_stringbuf", %"class.std::basic_ios" }
%"class.facebook::velox::(anonymous namespace)::VectorPrinter" = type { ptr, %"class.facebook::velox::DecodedVector", %"class.std::vector.65" }
%"class.facebook::velox::DecodedVector" = type { i32, ptr, ptr, ptr, %"class.std::optional.52", ptr, i8, i8, i8, i8, i8, i32, %"class.std::vector.60", %"class.std::vector" }
%"class.std::optional.52" = type { %"struct.std::_Optional_base.53" }
%"struct.std::_Optional_base.53" = type { %"struct.std::_Optional_payload.55" }
%"struct.std::_Optional_payload.55" = type { %"struct.std::_Optional_payload_base.base.57", [7 x i8] }
%"struct.std::_Optional_payload_base.base.57" = type <{ %"union.std::_Optional_payload_base<const unsigned long *>::_Storage", i8 }>
%"union.std::_Optional_payload_base<const unsigned long *>::_Storage" = type { ptr }
%"class.std::vector.60" = type { %"struct.std::_Vector_base.61" }
%"struct.std::_Vector_base.61" = type { %"struct.std::_Vector_base<int, std::allocator<int>>::_Vector_impl" }
%"struct.std::_Vector_base<int, std::allocator<int>>::_Vector_impl" = type { %"struct.std::_Vector_base<int, std::allocator<int>>::_Vector_impl_data" }
%"struct.std::_Vector_base<int, std::allocator<int>>::_Vector_impl_data" = type { ptr, ptr, ptr }
%"class.std::vector.65" = type { %"struct.std::_Vector_base.66" }
%"struct.std::_Vector_base.66" = type { %"struct.std::_Vector_base<std::unique_ptr<facebook::velox::(anonymous namespace)::VectorPrinter>, std::allocator<std::unique_ptr<facebook::velox::(anonymous namespace)::VectorPrinter>>>::_Vector_impl" }
%"struct.std::_Vector_base<std::unique_ptr<facebook::velox::(anonymous namespace)::VectorPrinter>, std::allocator<std::unique_ptr<facebook::velox::(anonymous namespace)::VectorPrinter>>>::_Vector_impl" = type { %"struct.std::_Vector_base<std::unique_ptr<facebook::velox::(anonymous namespace)::VectorPrinter>, std::allocator<std::unique_ptr<facebook::velox::(anonymous namespace)::VectorPrinter>>>::_Vector_impl_data" }
%"struct.std::_Vector_base<std::unique_ptr<facebook::velox::(anonymous namespace)::VectorPrinter>, std::allocator<std::unique_ptr<facebook::velox::(anonymous namespace)::VectorPrinter>>>::_Vector_impl_data" = type { ptr, ptr, ptr }

@.str.6 = private unnamed_addr constant [7 x i8] c"<null>\00", align 1

; Function Attrs: mustprogress nounwind uwtable
define linkonce_odr noundef zeroext i1 @_ZN8facebook5velox4bits8isBitSetImEEbPKT_i(ptr noundef %bits, i32 noundef %idx) #4 comdat {
entry:
  %bits.addr = alloca ptr, align 8
  %idx.addr = alloca i32, align 4
  store ptr %bits, ptr %bits.addr, align 8
  store i32 %idx, ptr %idx.addr, align 4
  %0 = load ptr, ptr %bits.addr, align 8
  %1 = load i32, ptr %idx.addr, align 4
  %conv = sext i32 %1 to i64
  %div = udiv i64 %conv, 64
  %arrayidx = getelementptr inbounds i64, ptr %0, i64 %div
  %2 = load i64, ptr %arrayidx, align 8
  %3 = load i32, ptr %idx.addr, align 4
  %conv1 = sext i32 %3 to i64
  %and = and i64 %conv1, 63
  %shl = shl i64 1, %and
  %and2 = and i64 %2, %shl
  %tobool = icmp ne i64 %and2, 0
  ret i1 %tobool
}

; Function Attrs: mustprogress uwtable
define linkonce_odr noundef zeroext i1 @_ZN8facebook5velox4bits9isBitNullEPKmi(ptr noundef %bits, i32 noundef %index) #2 comdat {
entry:
  %bits.addr = alloca ptr, align 8
  %index.addr = alloca i32, align 4
  store ptr %bits, ptr %bits.addr, align 8
  store i32 %index, ptr %index.addr, align 4
  %0 = load ptr, ptr %bits.addr, align 8
  %1 = load i32, ptr %index.addr, align 4
  %call = call noundef zeroext i1 @_ZN8facebook5velox4bits8isBitSetImEEbPKT_i(ptr noundef %0, i32 noundef %1)
  %conv = zext i1 %call to i32
  %cmp = icmp eq i32 %conv, 0
  ret i1 %cmp
}

; Function Attrs: mustprogress uwtable
define linkonce_odr noundef zeroext i1 @_ZNK8facebook5velox13DecodedVector8isNullAtEi(ptr noundef nonnull align 8 dereferenceable(120) %this, i32 noundef %idx) #2 comdat align 2 {
entry:
  %retval = alloca i1, align 1
  %this.addr = alloca ptr, align 8
  %idx.addr = alloca i32, align 4
  store ptr %this, ptr %this.addr, align 8
  store i32 %idx, ptr %idx.addr, align 4
  %this1 = load ptr, ptr %this.addr, align 8
  %nulls_ = getelementptr inbounds %"class.facebook::velox::DecodedVector", ptr %this1, i32 0, i32 3
  %0 = load ptr, ptr %nulls_, align 8
  %tobool = icmp ne ptr %0, null
  br i1 %tobool, label %if.end, label %if.then

if.then:                                          ; preds = %entry
  store i1 false, ptr %retval, align 1
  br label %return

if.end:                                           ; preds = %entry
  %isIdentityMapping_ = getelementptr inbounds %"class.facebook::velox::DecodedVector", ptr %this1, i32 0, i32 8
  %1 = load i8, ptr %isIdentityMapping_, align 2
  %tobool2 = trunc i8 %1 to i1
  br i1 %tobool2, label %if.then4, label %lor.lhs.false

lor.lhs.false:                                    ; preds = %if.end
  %hasExtraNulls_ = getelementptr inbounds %"class.facebook::velox::DecodedVector", ptr %this1, i32 0, i32 7
  %2 = load i8, ptr %hasExtraNulls_, align 1
  %tobool3 = trunc i8 %2 to i1
  br i1 %tobool3, label %if.then4, label %if.end6

if.then4:                                         ; preds = %lor.lhs.false, %if.end
  %nulls_5 = getelementptr inbounds %"class.facebook::velox::DecodedVector", ptr %this1, i32 0, i32 3
  %3 = load ptr, ptr %nulls_5, align 8
  %4 = load i32, ptr %idx.addr, align 4
  %call = call noundef zeroext i1 @_ZN8facebook5velox4bits9isBitNullEPKmi(ptr noundef %3, i32 noundef %4)
  store i1 %call, ptr %retval, align 1
  br label %return

if.end6:                                          ; preds = %lor.lhs.false
  %isConstantMapping_ = getelementptr inbounds %"class.facebook::velox::DecodedVector", ptr %this1, i32 0, i32 9
  %5 = load i8, ptr %isConstantMapping_, align 1
  %tobool7 = trunc i8 %5 to i1
  br i1 %tobool7, label %if.then8, label %if.end11

if.then8:                                         ; preds = %if.end6
  %nulls_9 = getelementptr inbounds %"class.facebook::velox::DecodedVector", ptr %this1, i32 0, i32 3
  %6 = load ptr, ptr %nulls_9, align 8
  %call10 = call noundef zeroext i1 @_ZN8facebook5velox4bits9isBitNullEPKmi(ptr noundef %6, i32 noundef 0)
  store i1 %call10, ptr %retval, align 1
  br label %return

if.end11:                                         ; preds = %if.end6
  %nulls_12 = getelementptr inbounds %"class.facebook::velox::DecodedVector", ptr %this1, i32 0, i32 3
  %7 = load ptr, ptr %nulls_12, align 8
  %indices_ = getelementptr inbounds %"class.facebook::velox::DecodedVector", ptr %this1, i32 0, i32 1
  %8 = load ptr, ptr %indices_, align 8
  %9 = load i32, ptr %idx.addr, align 4
  %idxprom = sext i32 %9 to i64
  %arrayidx = getelementptr inbounds i32, ptr %8, i64 %idxprom
  %10 = load i32, ptr %arrayidx, align 4
  %call13 = call noundef zeroext i1 @_ZN8facebook5velox4bits9isBitNullEPKmi(ptr noundef %7, i32 noundef %10)
  store i1 %call13, ptr %retval, align 1
  br label %return

return:                                           ; preds = %if.end11, %if.then8, %if.then4, %if.then
  %11 = load i1, ptr %retval, align 1
  ret i1 %11
}

; Function Attrs: mustprogress uwtable
define internal void @_ZNK8facebook5velox12_GLOBAL__N_113VectorPrinter5printEiRKNSt7__cxx1112basic_stringIcSt11char_traitsIcESaIcEEE(ptr noalias sret(%"class.std::__cxx11::basic_string") align 8 %agg.result, ptr noundef nonnull align 8 dereferenceable(152) %this, i32 noundef %index, ptr noundef nonnull align 8 dereferenceable(32) %indent) #2 align 2 personality ptr @__gxx_personality_v0 {
entry:
  %result.ptr = alloca ptr, align 8
  %this.addr = alloca ptr, align 8
  %index.addr = alloca i32, align 4
  %indent.addr = alloca ptr, align 8
  %out = alloca %"class.std::__cxx11::basic_ostringstream", align 8
  %exn.slot = alloca ptr, align 8
  %ehselector.slot = alloca i32, align 4
  store ptr %agg.result, ptr %result.ptr, align 8
  store ptr %this, ptr %this.addr, align 8
  store i32 %index, ptr %index.addr, align 4
  store ptr %indent, ptr %indent.addr, align 8
  %this1 = load ptr, ptr %this.addr, align 8
  %decoded_ = getelementptr inbounds %"class.facebook::velox::(anonymous namespace)::VectorPrinter", ptr %this1, i32 0, i32 1
  %0 = load i32, ptr %index.addr, align 4
  %call = call noundef zeroext i1 @_ZNK8facebook5velox13DecodedVector8isNullAtEi(ptr noundef nonnull align 8 dereferenceable(120) %decoded_, i32 noundef %0)
  br i1 %call, label %if.then, label %if.end

if.then:                                          ; preds = %entry
  call void @_ZNSt7__cxx1119basic_ostringstreamIcSt11char_traitsIcESaIcEEC1Ev(ptr noundef nonnull align 8 dereferenceable(112) %out)
  %1 = load ptr, ptr %indent.addr, align 8
  %call2 = invoke noundef nonnull align 8 dereferenceable(8) ptr @_ZStlsIcSt11char_traitsIcESaIcEERSt13basic_ostreamIT_T0_ES7_RKNSt7__cxx1112basic_stringIS4_S5_T1_EE(ptr noundef nonnull align 8 dereferenceable(8) %out, ptr noundef nonnull align 8 dereferenceable(32) %1)
          to label %invoke.cont unwind label %lpad

invoke.cont:                                      ; preds = %if.then
  %call4 = invoke noundef nonnull align 8 dereferenceable(8) ptr @_ZStlsISt11char_traitsIcEERSt13basic_ostreamIcT_ES5_PKc(ptr noundef nonnull align 8 dereferenceable(8) %call2, ptr noundef @.str.6)
          to label %invoke.cont3 unwind label %lpad

invoke.cont3:                                     ; preds = %invoke.cont
  %call6 = invoke noundef nonnull align 8 dereferenceable(8) ptr @_ZNSolsEPFRSoS_E(ptr noundef nonnull align 8 dereferenceable(8) %call4, ptr noundef @_ZSt4endlIcSt11char_traitsIcEERSt13basic_ostreamIT_T0_ES6_)
          to label %invoke.cont5 unwind label %lpad

invoke.cont5:                                     ; preds = %invoke.cont3
  invoke void @_ZNKSt7__cxx1119basic_ostringstreamIcSt11char_traitsIcESaIcEE3strEv(ptr sret(%"class.std::__cxx11::basic_string") align 8 %agg.result, ptr noundef nonnull align 8 dereferenceable(112) %out)
          to label %invoke.cont7 unwind label %lpad

invoke.cont7:                                     ; preds = %invoke.cont5
  call void @_ZNSt7__cxx1119basic_ostringstreamIcSt11char_traitsIcESaIcEED1Ev(ptr noundef nonnull align 8 dereferenceable(112) %out) #3
  br label %return

lpad:                                             ; preds = %invoke.cont5, %invoke.cont3, %invoke.cont, %if.then
  %2 = landingpad { ptr, i32 }
          cleanup
  %3 = extractvalue { ptr, i32 } %2, 0
  store ptr %3, ptr %exn.slot, align 8
  %4 = extractvalue { ptr, i32 } %2, 1
  store i32 %4, ptr %ehselector.slot, align 4
  call void @_ZNSt7__cxx1119basic_ostringstreamIcSt11char_traitsIcESaIcEED1Ev(ptr noundef nonnull align 8 dereferenceable(112) %out) #3
  br label %eh.resume

if.end:                                           ; preds = %entry
  %5 = load i32, ptr %index.addr, align 4
  %6 = load ptr, ptr %indent.addr, align 8
  %vtable = load ptr, ptr %this1, align 8
  %vfn = getelementptr inbounds ptr, ptr %vtable, i64 2
  %7 = load ptr, ptr %vfn, align 8
  call void %7(ptr sret(%"class.std::__cxx11::basic_string") align 8 %agg.result, ptr noundef nonnull align 8 dereferenceable(152) %this1, i32 noundef %5, ptr noundef nonnull align 8 dereferenceable(32) %6)
  br label %return

return:                                           ; preds = %if.end, %invoke.cont7
  ret void

eh.resume:                                        ; preds = %lpad
  %exn = load ptr, ptr %exn.slot, align 8
  %sel = load i32, ptr %ehselector.slot, align 4
  %lpad.val = insertvalue { ptr, i32 } poison, ptr %exn, 0
  %lpad.val8 = insertvalue { ptr, i32 } %lpad.val, i32 %sel, 1
  resume { ptr, i32 } %lpad.val8
}