; Function Attrs: mustprogress uwtable
define internal fastcc void @_ZNK8facebook5velox12_GLOBAL__N_113VectorPrinter5printEiRKNSt7__cxx1112basic_stringIcSt11char_traitsIcESaIcEEE(ptr noalias align 8 %agg.result, ptr noundef nonnull align 8 dereferenceable(152) %this, i32 noundef %index, ptr noundef nonnull align 8 dereferenceable(32) %indent) unnamed_addr #2 align 2 personality ptr @__gxx_personality_v0 {
entry:
  %out = alloca %"class.std::__cxx11::basic_ostringstream", align 8
  %nulls_.i = getelementptr inbounds i8, ptr %this, i64 32
  %0 = load ptr, ptr %nulls_.i, align 8
  %tobool.not.i = icmp eq ptr %0, null
  br i1 %tobool.not.i, label %if.end, label %if.end.i

if.end.i:                                         ; preds = %entry
  %isIdentityMapping_.i = getelementptr inbounds i8, ptr %this, i64 66
  %1 = load i8, ptr %isIdentityMapping_.i, align 2
  %2 = and i8 %1, 1
  %tobool2.not.i = icmp eq i8 %2, 0
  br i1 %tobool2.not.i, label %lor.lhs.false.i, label %if.then4.i

lor.lhs.false.i:                                  ; preds = %if.end.i
  %hasExtraNulls_.i = getelementptr inbounds i8, ptr %this, i64 65
  %3 = load i8, ptr %hasExtraNulls_.i, align 1
  %4 = and i8 %3, 1
  %tobool3.not.i = icmp eq i8 %4, 0
  br i1 %tobool3.not.i, label %if.end6.i, label %if.then4.i

if.then4.i:                                       ; preds = %lor.lhs.false.i, %if.end.i
  %conv.i.i.i = sext i32 %index to i64
  %div2.i.i.i = lshr i64 %conv.i.i.i, 6
  %arrayidx.i.i.i = getelementptr inbounds i64, ptr %0, i64 %div2.i.i.i
  %5 = load i64, ptr %arrayidx.i.i.i, align 8
  %and.i.i.i = and i64 %conv.i.i.i, 63
  %shl.i.i.i = shl nuw i64 1, %and.i.i.i
  %and2.i.i.i = and i64 %5, %shl.i.i.i
  %tobool.i.not.i.i = icmp eq i64 %and2.i.i.i, 0
  br i1 %tobool.i.not.i.i, label %if.then, label %if.end

if.end6.i:                                        ; preds = %lor.lhs.false.i
  %isConstantMapping_.i = getelementptr inbounds i8, ptr %this, i64 67
  %6 = load i8, ptr %isConstantMapping_.i, align 1
  %7 = and i8 %6, 1
  %tobool7.not.i = icmp eq i8 %7, 0
  br i1 %tobool7.not.i, label %_ZNK8facebook5velox13DecodedVector8isNullAtEi.exit, label %if.then8.i

if.then8.i:                                       ; preds = %if.end6.i
  %8 = load i64, ptr %0, align 8
  %and2.i.i2.i = and i64 %8, 1
  %tobool.i.not.i3.i = icmp eq i64 %and2.i.i2.i, 0
  br i1 %tobool.i.not.i3.i, label %if.then, label %if.end

_ZNK8facebook5velox13DecodedVector8isNullAtEi.exit: ; preds = %if.end6.i
  %indices_.i = getelementptr inbounds i8, ptr %this, i64 16
  %9 = load ptr, ptr %indices_.i, align 8
  %idxprom.i = sext i32 %index to i64
  %arrayidx.i = getelementptr inbounds i32, ptr %9, i64 %idxprom.i
  %10 = load i32, ptr %arrayidx.i, align 4
  %conv.i.i4.i = sext i32 %10 to i64
  %div2.i.i5.i = lshr i64 %conv.i.i4.i, 6
  %arrayidx.i.i6.i = getelementptr inbounds i64, ptr %0, i64 %div2.i.i5.i
  %11 = load i64, ptr %arrayidx.i.i6.i, align 8
  %and.i.i7.i = and i64 %conv.i.i4.i, 63
  %shl.i.i8.i = shl nuw i64 1, %and.i.i7.i
  %and2.i.i9.i = and i64 %shl.i.i8.i, %11
  %tobool.i.not.i10.i = icmp eq i64 %and2.i.i9.i, 0
  br i1 %tobool.i.not.i10.i, label %if.then, label %if.end

if.then:                                          ; preds = %if.then8.i, %if.then4.i, %_ZNK8facebook5velox13DecodedVector8isNullAtEi.exit
  call void @_ZNSt7__cxx1119basic_ostringstreamIcSt11char_traitsIcESaIcEEC1Ev(ptr noundef nonnull align 8 dereferenceable(112) %out)
  %call2 = invoke noundef nonnull align 8 dereferenceable(8) ptr @_ZStlsIcSt11char_traitsIcESaIcEERSt13basic_ostreamIT_T0_ES7_RKNSt7__cxx1112basic_stringIS4_S5_T1_EE(ptr noundef nonnull align 8 dereferenceable(8) %out, ptr noundef nonnull align 8 dereferenceable(32) %indent)
          to label %invoke.cont unwind label %lpad

invoke.cont:                                      ; preds = %if.then
  %call4 = invoke noundef nonnull align 8 dereferenceable(8) ptr @_ZStlsISt11char_traitsIcEERSt13basic_ostreamIcT_ES5_PKc(ptr noundef nonnull align 8 dereferenceable(8) %call2, ptr noundef nonnull @.str.6)
          to label %invoke.cont3 unwind label %lpad

invoke.cont3:                                     ; preds = %invoke.cont
  %call6 = invoke noundef nonnull align 8 dereferenceable(8) ptr @_ZNSolsEPFRSoS_E(ptr noundef nonnull align 8 dereferenceable(8) %call4, ptr noundef nonnull @_ZSt4endlIcSt11char_traitsIcEERSt13basic_ostreamIT_T0_ES6_)
          to label %invoke.cont5 unwind label %lpad

invoke.cont5:                                     ; preds = %invoke.cont3
  invoke void @_ZNKSt7__cxx1119basic_ostringstreamIcSt11char_traitsIcESaIcEE3strEv(ptr sret(%"class.std::__cxx11::basic_string") align 8 %agg.result, ptr noundef nonnull align 8 dereferenceable(112) %out)
          to label %invoke.cont7 unwind label %lpad

invoke.cont7:                                     ; preds = %invoke.cont5
  call void @_ZNSt7__cxx1119basic_ostringstreamIcSt11char_traitsIcESaIcEED1Ev(ptr noundef nonnull align 8 dereferenceable(112) %out) #20
  br label %return

lpad:                                             ; preds = %invoke.cont5, %invoke.cont3, %invoke.cont, %if.then
  %12 = landingpad { ptr, i32 }
          cleanup
  call void @_ZNSt7__cxx1119basic_ostringstreamIcSt11char_traitsIcESaIcEED1Ev(ptr noundef nonnull align 8 dereferenceable(112) %out) #20
  resume { ptr, i32 } %12

if.end:                                           ; preds = %entry, %if.then8.i, %if.then4.i, %_ZNK8facebook5velox13DecodedVector8isNullAtEi.exit
  %vtable = load ptr, ptr %this, align 8
  %vfn = getelementptr inbounds i8, ptr %vtable, i64 16
  %13 = load ptr, ptr %vfn, align 8
  tail call void %13(ptr sret(%"class.std::__cxx11::basic_string") align 8 %agg.result, ptr noundef nonnull align 8 dereferenceable(152) %this, i32 noundef %index, ptr noundef nonnull align 8 dereferenceable(32) %indent)
  br label %return

return:                                           ; preds = %if.end, %invoke.cont7
  ret void
}